ARM GAS  C:\Users\ALEXAN~1\AppData\Local\Temp\cc64y7cK.s 			page 1


   1              		.syntax unified
   2              		.cpu cortex-m3
   3              		.fpu softvfp
   4              		.eabi_attribute 20, 1
   5              		.eabi_attribute 21, 1
   6              		.eabi_attribute 23, 3
   7              		.eabi_attribute 24, 1
   8              		.eabi_attribute 25, 1
   9              		.eabi_attribute 26, 1
  10              		.eabi_attribute 30, 1
  11              		.eabi_attribute 34, 1
  12              		.eabi_attribute 18, 4
  13              		.thumb
  14              		.syntax unified
  15              		.file	"main.c"
  16              		.text
  17              	.Ltext0:
  18              		.cfi_sections	.debug_frame
  19              		.section	.text.readRawAngle,"ax",%progbits
  20              		.align	2
  21              		.global	readRawAngle
  22              		.thumb
  23              		.thumb_func
  24              		.type	readRawAngle, %function
  25              	readRawAngle:
  26              	.LFB64:
  27              		.file 1 "main.c"
   1:main.c        **** /* ========================================
   2:main.c        ****  *
   3:main.c        ****  * U N I V E R S I D A D   D E   P A M P L O N A
   4:main.c        ****  *
   5:main.c        ****  * Copyright Edwin Alexander Calderón Leal, 2024
   6:main.c        ****  * Todos los Derechos Reservados
   7:main.c        ****  * NO PUBLICADO, SOFTWARE LICENCIADO.
   8:main.c        ****  *
   9:main.c        ****  * INFORMACIÓN CONFIDENCIAL Y PROPIETARIA
  10:main.c        ****  * PROPIEDAD DE Edwin Alexander Calderón Leal.
  11:main.c        ****  *
  12:main.c        ****  * ========================================
  13:main.c        ****  *
  14:main.c        ****  * Nombre: 
  15:main.c        ****  * Edwin Alexander Calderón Leal
  16:main.c        ****  * Estudiante de Ingeniería Mecatrónica
  17:main.c        ****  * Proyecto en desarrollo para proyecto de grado
  18:main.c        ****  * del programa de Ingeniería Mecatrónica
  19:main.c        ****  * 
  20:main.c        ****  * Realizado en julio del 2024, Semestre 2024-1
  21:main.c        ****  * 
  22:main.c        ****  * Departamento de Ingenierías y Arquitectura
  23:main.c        ****  *
  24:main.c        ****  * ========================================
  25:main.c        ****  *
  26:main.c        ****  * Resumen del código:
  27:main.c        ****  * Este código implementa un sistema de control y monitoreo utilizando un microcontrolador.
  28:main.c        ****  * El sistema lee datos de un sensor de ángulo AS5600 a través de I2C y muestra los resultados
  29:main.c        ****  * en una pantalla OLED. El ángulo crudo se convierte a grados y se calcula el delta del ángulo 
  30:main.c        ****  * para obtener la velocidad en RPM. Los datos se envían por UART para su visualización.
ARM GAS  C:\Users\ALEXAN~1\AppData\Local\Temp\cc64y7cK.s 			page 2


  31:main.c        ****  * Además, se utiliza un temporizador para actualizar el sistema a intervalos regulares y controla
  32:main.c        ****  * un PWM que ajusta un actuador. El código también implementa un filtro de media móvil para sua
  33:main.c        ****  * los cambios en los ángulos.
  34:main.c        ****  *
  35:main.c        ****  * Funcionalidades clave:
  36:main.c        ****  * - Lectura del ángulo crudo del sensor AS5600.
  37:main.c        ****  * - Conversión del ángulo crudo a grados.
  38:main.c        ****  * - Cálculo del delta del ángulo y RPM.
  39:main.c        ****  * - Envío de datos a través de UART.
  40:main.c        ****  * - Visualización de datos en una pantalla OLED.
  41:main.c        ****  * - Control de un PWM para ajustar un actuador.
  42:main.c        ****  * - Implementación de un filtro de media móvil.
  43:main.c        ****  *
  44:main.c        ****  * ========================================
  45:main.c        **** */
  46:main.c        **** #include "project.h"
  47:main.c        **** #include "stdlib.h"
  48:main.c        **** #include "stdio.h"
  49:main.c        **** #include <ssd1306.h>
  50:main.c        **** 
  51:main.c        **** 
  52:main.c        **** #define Timer_INTR_MASK_TC           (0x01u)
  53:main.c        **** #define Timer_INTR_MASK_CC_MATCH     (0x02u)
  54:main.c        **** 
  55:main.c        **** // Definiciones de pines y direcciones I2C
  56:main.c        **** #define AS5600_ADDR                   0x36
  57:main.c        **** #define ANGLE_REG                     0x0E
  58:main.c        **** #define AS5600_CONF_MSB               0x07
  59:main.c        **** #define AS5600_CONF_LSB               0x08
  60:main.c        **** 
  61:main.c        **** 
  62:main.c        **** // Definiciones de pines y direcciones I2C Oled
  63:main.c        **** #define DISPLAY_ADDRESS 0x3C 
  64:main.c        **** 
  65:main.c        **** // Definiciones de timer
  66:main.c        **** #define UPDATE_PERIOD_MS 15
  67:main.c        **** #define MINUTE_INTERVAL_MS 60000 // 1 minuto en milisegundos
  68:main.c        **** #define DELTA_TIME_CONSTANT 1.7e-5
  69:main.c        **** double long currentTime = 0;
  70:main.c        **** float delta_tiempo;
  71:main.c        **** 
  72:main.c        **** // Media Movil Delta del angulo
  73:main.c        **** #define MOVING_AVERAGE_WINDOW 5
  74:main.c        **** float deltaAngleHistory[MOVING_AVERAGE_WINDOW]; // Array para almacenar el historial de deltaAngle
  75:main.c        **** int deltaAngleIndex; // Índice para actualizar el array circularmente
  76:main.c        **** 
  77:main.c        **** ///// sumador de pwm
  78:main.c        **** double  long previousMillis = 0; // Variable para almacenar el tiempo del último cambio de pwm
  79:main.c        **** const long interval = 600; // Intervalo de tiempo en milisegundos (1 minuto)
  80:main.c        **** double long prevTime;
  81:main.c        **** double long milliseconds = 0; // Variable para almacenar los milisegundos transcurridos
  82:main.c        **** 
  83:main.c        **** // Variables Globales
  84:main.c        **** uint16_t rawAngle;
  85:main.c        **** uint16_t dutyCycle = 0; // Variable para almacenar el ciclo de trabajo del PWM // valores 0 - 4096
  86:main.c        **** uint16_t pwm = 500; // valores 0 - 4096
  87:main.c        **** float rpm=0;
ARM GAS  C:\Users\ALEXAN~1\AppData\Local\Temp\cc64y7cK.s 			page 3


  88:main.c        **** float pwmup=250;
  89:main.c        **** 
  90:main.c        **** float anguloGrados;
  91:main.c        **** float angAnterior = 0;
  92:main.c        **** float deltaAngle = 0;
  93:main.c        **** 
  94:main.c        **** uint32_t elapsedMillis = 0; // Variable para almacenar el tiempo transcurrido
  95:main.c        **** 
  96:main.c        **** char buffer[500]; // Buffer para convertir los valores a cadena de caracteres
  97:main.c        **** 
  98:main.c        ****  
  99:main.c        **** 
 100:main.c        **** // Función para leer el ángulo crudo del sensor AS5600
 101:main.c        **** uint16_t readRawAngle() {
  28              		.loc 1 101 0
  29              		.cfi_startproc
  30              		@ args = 0, pretend = 0, frame = 0
  31              		@ frame_needed = 0, uses_anonymous_args = 0
  32 0000 38B5     		push	{r3, r4, r5, lr}
  33              		.cfi_def_cfa_offset 16
  34              		.cfi_offset 3, -16
  35              		.cfi_offset 4, -12
  36              		.cfi_offset 5, -8
  37              		.cfi_offset 14, -4
 102:main.c        ****     // Iniciar transmisión I2C al AS5600
 103:main.c        ****     I2C_MasterSendStart(AS5600_ADDR, I2C_WRITE_XFER_MODE);
  38              		.loc 1 103 0
  39 0002 0021     		movs	r1, #0
  40 0004 3620     		movs	r0, #54
  41 0006 FFF7FEFF 		bl	I2C_MasterSendStart
  42              	.LVL0:
 104:main.c        ****     I2C_MasterWriteByte(ANGLE_REG);
  43              		.loc 1 104 0
  44 000a 0E20     		movs	r0, #14
  45 000c FFF7FEFF 		bl	I2C_MasterWriteByte
  46              	.LVL1:
 105:main.c        ****     I2C_MasterSendStop();  
  47              		.loc 1 105 0
  48 0010 FFF7FEFF 		bl	I2C_MasterSendStop
  49              	.LVL2:
 106:main.c        ****     // Solicitar 2 bytes del ángulo
 107:main.c        ****     I2C_MasterSendStart(AS5600_ADDR, I2C_READ_XFER_MODE);
  50              		.loc 1 107 0
  51 0014 0121     		movs	r1, #1
  52 0016 3620     		movs	r0, #54
  53 0018 FFF7FEFF 		bl	I2C_MasterSendStart
  54              	.LVL3:
 108:main.c        ****     uint8_t msb = I2C_MasterReadByte(I2C_ACK_DATA);
  55              		.loc 1 108 0
  56 001c 0120     		movs	r0, #1
  57 001e FFF7FEFF 		bl	I2C_MasterReadByte
  58              	.LVL4:
  59 0022 0546     		mov	r5, r0
  60              	.LVL5:
 109:main.c        ****     uint8_t lsb = I2C_MasterReadByte(I2C_NAK_DATA);
  61              		.loc 1 109 0
  62 0024 0020     		movs	r0, #0
ARM GAS  C:\Users\ALEXAN~1\AppData\Local\Temp\cc64y7cK.s 			page 4


  63 0026 FFF7FEFF 		bl	I2C_MasterReadByte
  64              	.LVL6:
  65 002a 0446     		mov	r4, r0
  66              	.LVL7:
 110:main.c        ****     I2C_MasterSendStop();
  67              		.loc 1 110 0
  68 002c FFF7FEFF 		bl	I2C_MasterSendStop
  69              	.LVL8:
 111:main.c        ****     rawAngle = (msb << 8) | lsb;
  70              		.loc 1 111 0
  71 0030 44EA0520 		orr	r0, r4, r5, lsl #8
 112:main.c        ****     rawAngle &= 0x0FFF; // Asegurarse de que es un valor de 12 bits
  72              		.loc 1 112 0
  73 0034 C0F30B00 		ubfx	r0, r0, #0, #12
  74 0038 014B     		ldr	r3, .L3
  75 003a 1880     		strh	r0, [r3]	@ movhi
 113:main.c        ****     return rawAngle;
 114:main.c        **** }
  76              		.loc 1 114 0
  77 003c 38BD     		pop	{r3, r4, r5, pc}
  78              	.LVL9:
  79              	.L4:
  80 003e 00BF     		.align	2
  81              	.L3:
  82 0040 00000000 		.word	rawAngle
  83              		.cfi_endproc
  84              	.LFE64:
  85              		.size	readRawAngle, .-readRawAngle
  86              		.global	__aeabi_dadd
  87              		.global	__aeabi_dsub
  88              		.global	__aeabi_d2f
  89              		.global	__aeabi_i2d
  90              		.global	__aeabi_dmul
  91              		.global	__aeabi_fcmpgt
  92              		.global	__aeabi_fsub
  93              		.global	__aeabi_fcmplt
  94              		.global	__aeabi_fadd
  95              		.global	__aeabi_fdiv
  96              		.global	__aeabi_f2d
  97              		.global	__aeabi_dcmpgt
  98              		.global	__aeabi_ddiv
  99              		.section	.text.Timer_ISR_Handler,"ax",%progbits
 100              		.align	2
 101              		.global	Timer_ISR_Handler
 102              		.thumb
 103              		.thumb_func
 104              		.type	Timer_ISR_Handler, %function
 105              	Timer_ISR_Handler:
 106              	.LFB65:
 115:main.c        **** 
 116:main.c        **** 
 117:main.c        **** 
 118:main.c        **** CY_ISR(Timer_ISR_Handler) {
 107              		.loc 1 118 0
 108              		.cfi_startproc
 109              		@ args = 0, pretend = 0, frame = 0
 110              		@ frame_needed = 0, uses_anonymous_args = 0
ARM GAS  C:\Users\ALEXAN~1\AppData\Local\Temp\cc64y7cK.s 			page 5


 111 0000 2DE9F04F 		push	{r4, r5, r6, r7, r8, r9, r10, fp, lr}
 112              		.cfi_def_cfa_offset 36
 113              		.cfi_offset 4, -36
 114              		.cfi_offset 5, -32
 115              		.cfi_offset 6, -28
 116              		.cfi_offset 7, -24
 117              		.cfi_offset 8, -20
 118              		.cfi_offset 9, -16
 119              		.cfi_offset 10, -12
 120              		.cfi_offset 11, -8
 121              		.cfi_offset 14, -4
 122 0004 8DB0     		sub	sp, sp, #52
 123              		.cfi_def_cfa_offset 88
 119:main.c        ****      // Incrementa la variable de milisegundos
 120:main.c        ****     currentTime+=UPDATE_PERIOD_MS;
 124              		.loc 1 120 0
 125 0006 724C     		ldr	r4, .L22+24
 126 0008 0022     		movs	r2, #0
 127 000a 724B     		ldr	r3, .L22+28
 128 000c D4E90001 		ldrd	r0, [r4]
 129 0010 FFF7FEFF 		bl	__aeabi_dadd
 130              	.LVL10:
 131 0014 C4E90001 		strd	r0, [r4]
 121:main.c        ****     rawAngle = readRawAngle();// Leer el ángulo crudo y convertir a grados
 132              		.loc 1 121 0
 133 0018 FFF7FEFF 		bl	readRawAngle
 134              	.LVL11:
 135 001c 6E4D     		ldr	r5, .L22+32
 136 001e 2880     		strh	r0, [r5]	@ movhi
 122:main.c        ****     delta_tiempo = currentTime - prevTime ; //segundos
 137              		.loc 1 122 0
 138 0020 D4E90089 		ldrd	r8, [r4]
 139 0024 6D4E     		ldr	r6, .L22+36
 140 0026 D6E90023 		ldrd	r2, [r6]
 141 002a 4046     		mov	r0, r8
 142 002c 4946     		mov	r1, r9
 143 002e FFF7FEFF 		bl	__aeabi_dsub
 144              	.LVL12:
 145 0032 FFF7FEFF 		bl	__aeabi_d2f
 146              	.LVL13:
 147 0036 6A4B     		ldr	r3, .L22+40
 148 0038 1860     		str	r0, [r3]	@ float
 123:main.c        ****     prevTime = currentTime;
 149              		.loc 1 123 0
 150 003a C6E90089 		strd	r8, [r6]
 124:main.c        ****     display_clear();  
 151              		.loc 1 124 0
 152 003e FFF7FEFF 		bl	display_clear
 153              	.LVL14:
 125:main.c        ****     anguloGrados =  (rawAngle * 360) / 4096.0; // convertir a grados
 154              		.loc 1 125 0
 155 0042 B5F800A0 		ldrh	r10, [r5]
 156 0046 4FF4B470 		mov	r0, #360
 157 004a 00FB0AF0 		mul	r0, r0, r10
 158 004e FFF7FEFF 		bl	__aeabi_i2d
 159              	.LVL15:
 160 0052 0022     		movs	r2, #0
ARM GAS  C:\Users\ALEXAN~1\AppData\Local\Temp\cc64y7cK.s 			page 6


 161 0054 634B     		ldr	r3, .L22+44
 162 0056 FFF7FEFF 		bl	__aeabi_dmul
 163              	.LVL16:
 164 005a FFF7FEFF 		bl	__aeabi_d2f
 165              	.LVL17:
 166 005e 0546     		mov	r5, r0
 167 0060 614B     		ldr	r3, .L22+48
 168 0062 1860     		str	r0, [r3]	@ float
 126:main.c        ****     // Calcular la diferencia de ángulo
 127:main.c        ****     if (anguloGrados > angAnterior) {
 169              		.loc 1 127 0
 170 0064 A468     		ldr	r4, [r4, #8]	@ float
 171 0066 2146     		mov	r1, r4
 172 0068 FFF7FEFF 		bl	__aeabi_fcmpgt
 173              	.LVL18:
 174 006c 30B1     		cbz	r0, .L20
 128:main.c        ****         deltaAngle = anguloGrados - angAnterior;
 175              		.loc 1 128 0
 176 006e 2146     		mov	r1, r4
 177 0070 2846     		mov	r0, r5
 178 0072 FFF7FEFF 		bl	__aeabi_fsub
 179              	.LVL19:
 180 0076 564B     		ldr	r3, .L22+24
 181 0078 D860     		str	r0, [r3, #12]	@ float
 182 007a 0EE0     		b	.L8
 183              	.L20:
 129:main.c        ****     } else if (anguloGrados < angAnterior) {
 184              		.loc 1 129 0
 185 007c 2146     		mov	r1, r4
 186 007e 2846     		mov	r0, r5
 187 0080 FFF7FEFF 		bl	__aeabi_fcmplt
 188              	.LVL20:
 189 0084 48B1     		cbz	r0, .L8
 130:main.c        ****         deltaAngle = (360 - angAnterior) + anguloGrados;
 190              		.loc 1 130 0
 191 0086 2146     		mov	r1, r4
 192 0088 5848     		ldr	r0, .L22+52
 193 008a FFF7FEFF 		bl	__aeabi_fsub
 194              	.LVL21:
 195 008e 0146     		mov	r1, r0
 196 0090 2846     		mov	r0, r5
 197 0092 FFF7FEFF 		bl	__aeabi_fadd
 198              	.LVL22:
 199 0096 4E4B     		ldr	r3, .L22+24
 200 0098 D860     		str	r0, [r3, #12]	@ float
 201              	.L8:
 131:main.c        ****     }
 132:main.c        ****     angAnterior = anguloGrados;
 202              		.loc 1 132 0
 203 009a 4D4B     		ldr	r3, .L22+24
 204 009c 9D60     		str	r5, [r3, #8]	@ float
 133:main.c        ****     ///Media Movil
 134:main.c        ****     deltaAngleHistory[deltaAngleIndex] = deltaAngle;
 205              		.loc 1 134 0
 206 009e 5448     		ldr	r0, .L22+56
 207 00a0 0268     		ldr	r2, [r0]
 208 00a2 D968     		ldr	r1, [r3, #12]	@ float
ARM GAS  C:\Users\ALEXAN~1\AppData\Local\Temp\cc64y7cK.s 			page 7


 209 00a4 534B     		ldr	r3, .L22+60
 210 00a6 43F82210 		str	r1, [r3, r2, lsl #2]	@ float
 135:main.c        ****     deltaAngleIndex = (deltaAngleIndex + 1) % MOVING_AVERAGE_WINDOW;
 211              		.loc 1 135 0
 212 00aa 0132     		adds	r2, r2, #1
 213 00ac 524B     		ldr	r3, .L22+64
 214 00ae 83FB0231 		smull	r3, r1, r3, r2
 215 00b2 D317     		asrs	r3, r2, #31
 216 00b4 C3EB6103 		rsb	r3, r3, r1, asr #1
 217 00b8 03EB8303 		add	r3, r3, r3, lsl #2
 218 00bc D31A     		subs	r3, r2, r3
 219 00be 0360     		str	r3, [r0]
 220              	.LVL23:
 221              	.LBB2:
 136:main.c        **** 
 137:main.c        ****     // Calcular la media móvil de deltaAngle
 138:main.c        ****     float moving_deltaAngle = 0.0;
 139:main.c        ****     for (int i = 0; i < MOVING_AVERAGE_WINDOW; i++) {
 222              		.loc 1 139 0
 223 00c0 0024     		movs	r4, #0
 224              	.LBE2:
 138:main.c        ****     for (int i = 0; i < MOVING_AVERAGE_WINDOW; i++) {
 225              		.loc 1 138 0
 226 00c2 0020     		movs	r0, #0
 227              	.LBB3:
 228              		.loc 1 139 0
 229 00c4 05E0     		b	.L10
 230              	.LVL24:
 231              	.L11:
 140:main.c        ****      moving_deltaAngle += deltaAngleHistory[i];
 232              		.loc 1 140 0 discriminator 3
 233 00c6 4B4B     		ldr	r3, .L22+60
 234 00c8 53F82410 		ldr	r1, [r3, r4, lsl #2]	@ float
 235 00cc FFF7FEFF 		bl	__aeabi_fadd
 236              	.LVL25:
 139:main.c        ****      moving_deltaAngle += deltaAngleHistory[i];
 237              		.loc 1 139 0 discriminator 3
 238 00d0 0134     		adds	r4, r4, #1
 239              	.LVL26:
 240              	.L10:
 139:main.c        ****      moving_deltaAngle += deltaAngleHistory[i];
 241              		.loc 1 139 0 is_stmt 0 discriminator 1
 242 00d2 042C     		cmp	r4, #4
 243 00d4 F7DD     		ble	.L11
 244              	.LBE3:
 141:main.c        ****     }
 142:main.c        ****     moving_deltaAngle /= MOVING_AVERAGE_WINDOW;
 245              		.loc 1 142 0 is_stmt 1
 246 00d6 4949     		ldr	r1, .L22+68
 247 00d8 FFF7FEFF 		bl	__aeabi_fdiv
 248              	.LVL27:
 249 00dc 8346     		mov	fp, r0
 250              	.LVL28:
 143:main.c        **** 
 144:main.c        ****     // // Almacenar la media móvil en deltaAngle
 145:main.c        ****     deltaAngle = moving_deltaAngle;
 251              		.loc 1 145 0
ARM GAS  C:\Users\ALEXAN~1\AppData\Local\Temp\cc64y7cK.s 			page 8


 252 00de 3C4B     		ldr	r3, .L22+24
 253 00e0 D860     		str	r0, [r3, #12]	@ float
 146:main.c        **** //    if (deltaAngle > 5.0){
 147:main.c        **** //            deltaAngle = 0;
 148:main.c        **** //        }
 149:main.c        **** //    ///
 150:main.c        ****     // Calcular RPM    
 151:main.c        ****     double deltaTime = (double)delta_tiempo * DELTA_TIME_CONSTANT; // Convertir a minutos    
 254              		.loc 1 151 0
 255 00e2 3F4B     		ldr	r3, .L22+40
 256 00e4 1868     		ldr	r0, [r3]	@ float
 257              	.LVL29:
 258 00e6 FFF7FEFF 		bl	__aeabi_f2d
 259              	.LVL30:
 260 00ea 0646     		mov	r6, r0
 261 00ec 0F46     		mov	r7, r1
 262 00ee 32A3     		adr	r3, .L22
 263 00f0 D3E90023 		ldrd	r2, [r3]
 264 00f4 FFF7FEFF 		bl	__aeabi_dmul
 265              	.LVL31:
 266 00f8 8046     		mov	r8, r0
 267 00fa 8946     		mov	r9, r1
 268              	.LVL32:
 152:main.c        ****      if (deltaTime > 0) {
 269              		.loc 1 152 0
 270 00fc 0022     		movs	r2, #0
 271 00fe 0023     		movs	r3, #0
 272 0100 FFF7FEFF 		bl	__aeabi_dcmpgt
 273              	.LVL33:
 274 0104 98B1     		cbz	r0, .L12
 275              	.LBB4:
 153:main.c        ****         float omega = deltaAngle / deltaTime;
 276              		.loc 1 153 0
 277 0106 5846     		mov	r0, fp
 278 0108 FFF7FEFF 		bl	__aeabi_f2d
 279              	.LVL34:
 280 010c 4246     		mov	r2, r8
 281 010e 4B46     		mov	r3, r9
 282 0110 FFF7FEFF 		bl	__aeabi_ddiv
 283              	.LVL35:
 284 0114 FFF7FEFF 		bl	__aeabi_d2f
 285              	.LVL36:
 154:main.c        ****         rpm =  omega * (1.0 / 360.0); // pulsos por revolución        
 286              		.loc 1 154 0
 287 0118 FFF7FEFF 		bl	__aeabi_f2d
 288              	.LVL37:
 289 011c 28A3     		adr	r3, .L22+8
 290 011e D3E90023 		ldrd	r2, [r3]
 291 0122 FFF7FEFF 		bl	__aeabi_dmul
 292              	.LVL38:
 293 0126 FFF7FEFF 		bl	__aeabi_d2f
 294              	.LVL39:
 295 012a 294B     		ldr	r3, .L22+24
 296 012c 1861     		str	r0, [r3, #16]	@ float
 297              	.L12:
 298              	.LBE4:
 155:main.c        ****     }
ARM GAS  C:\Users\ALEXAN~1\AppData\Local\Temp\cc64y7cK.s 			page 9


 156:main.c        **** 
 157:main.c        ****     milliseconds++;
 299              		.loc 1 157 0
 300 012e 284C     		ldr	r4, .L22+24
 301              	.LVL40:
 302 0130 0022     		movs	r2, #0
 303 0132 334B     		ldr	r3, .L22+72
 304 0134 D4E90601 		ldrd	r0, [r4, #24]
 305 0138 FFF7FEFF 		bl	__aeabi_dadd
 306              	.LVL41:
 307 013c C4E90601 		strd	r0, [r4, #24]
 158:main.c        ****     
 159:main.c        ****     //La condición milliseconds > 2000 se cumple aproximadamente cada 2000 * 15 ms, que es 30000 m
 160:main.c        ****     if  (milliseconds>(5000/15)){    
 308              		.loc 1 160 0
 309 0140 21A3     		adr	r3, .L22+16
 310 0142 D3E90023 		ldrd	r2, [r3]
 311 0146 FFF7FEFF 		bl	__aeabi_dcmpgt
 312              	.LVL42:
 313 014a 38B1     		cbz	r0, .L14
 161:main.c        ****         pwm=1000;
 314              		.loc 1 161 0
 315 014c 4FF47A72 		mov	r2, #1000
 316 0150 2C4B     		ldr	r3, .L22+76
 317 0152 1A80     		strh	r2, [r3]	@ movhi
 162:main.c        ****         milliseconds = 0;
 318              		.loc 1 162 0
 319 0154 0020     		movs	r0, #0
 320 0156 0021     		movs	r1, #0
 321 0158 C4E90601 		strd	r0, [r4, #24]
 322              	.L14:
 163:main.c        ****     }
 164:main.c        ****     sprintf(buffer, "PWM, %d ,    Time, %.2Lf  ,     Crudo, %u   ,   Grados,   %.5f  , deltaAngle, 
 323              		.loc 1 164 0
 324 015c 1C4C     		ldr	r4, .L22+24
 325 015e B4F82090 		ldrh	r9, [r4, #32]
 326 0162 DFF8A880 		ldr	r8, .L22+84
 327              	.LVL43:
 328 0166 2069     		ldr	r0, [r4, #16]	@ float
 329 0168 FFF7FEFF 		bl	__aeabi_f2d
 330              	.LVL44:
 331 016c CDE90A01 		strd	r0, [sp, #40]
 332 0170 CDE90867 		strd	r6, [sp, #32]
 333 0174 5846     		mov	r0, fp
 334 0176 FFF7FEFF 		bl	__aeabi_f2d
 335              	.LVL45:
 336 017a CDE90601 		strd	r0, [sp, #24]
 337 017e 2846     		mov	r0, r5
 338 0180 FFF7FEFF 		bl	__aeabi_f2d
 339              	.LVL46:
 340 0184 CDE90401 		strd	r0, [sp, #16]
 341 0188 CDF808A0 		str	r10, [sp, #8]
 342 018c D4E90023 		ldrd	r2, [r4]
 343 0190 CDE90023 		strd	r2, [sp]
 344 0194 4A46     		mov	r2, r9
 345 0196 1C49     		ldr	r1, .L22+80
 346 0198 4046     		mov	r0, r8
ARM GAS  C:\Users\ALEXAN~1\AppData\Local\Temp\cc64y7cK.s 			page 10


 347 019a FFF7FEFF 		bl	sprintf
 348              	.LVL47:
 165:main.c        ****                      dutyCycle, currentTime, rawAngle, anguloGrados, deltaAngle, delta_tiempo, rpm)
 166:main.c        ****     UART_PutString(buffer);
 349              		.loc 1 166 0
 350 019e 4046     		mov	r0, r8
 351 01a0 FFF7FEFF 		bl	UART_PutString
 352              	.LVL48:
 167:main.c        ****     dutyCycle = pwm;
 353              		.loc 1 167 0
 354 01a4 174B     		ldr	r3, .L22+76
 355 01a6 1888     		ldrh	r0, [r3]
 356 01a8 2084     		strh	r0, [r4, #32]	@ movhi
 168:main.c        ****     LPWM_WriteCompare(dutyCycle); 
 357              		.loc 1 168 0
 358 01aa FFF7FEFF 		bl	LPWM_WriteCompare
 359              	.LVL49:
 169:main.c        **** }
 360              		.loc 1 169 0
 361 01ae 0DB0     		add	sp, sp, #52
 362              		.cfi_def_cfa_offset 36
 363              		@ sp needed
 364 01b0 BDE8F08F 		pop	{r4, r5, r6, r7, r8, r9, r10, fp, pc}
 365              	.LVL50:
 366              	.L23:
 367 01b4 AFF30080 		.align	3
 368              	.L22:
 369 01b8 664CC11A 		.word	448875622
 370 01bc 67D3F13E 		.word	1056035687
 371 01c0 176CC116 		.word	381774871
 372 01c4 6CC1663F 		.word	1063698796
 373 01c8 00000000 		.word	0
 374 01cc 00D07440 		.word	1081397248
 375 01d0 00000000 		.word	.LANCHOR0
 376 01d4 00002E40 		.word	1076756480
 377 01d8 00000000 		.word	rawAngle
 378 01dc 00000000 		.word	prevTime
 379 01e0 00000000 		.word	delta_tiempo
 380 01e4 0000303F 		.word	1060110336
 381 01e8 00000000 		.word	anguloGrados
 382 01ec 0000B443 		.word	1135869952
 383 01f0 00000000 		.word	deltaAngleIndex
 384 01f4 00000000 		.word	deltaAngleHistory
 385 01f8 67666666 		.word	1717986919
 386 01fc 0000A040 		.word	1084227584
 387 0200 0000F03F 		.word	1072693248
 388 0204 00000000 		.word	.LANCHOR1
 389 0208 00000000 		.word	.LC0
 390 020c 00000000 		.word	buffer
 391              		.cfi_endproc
 392              	.LFE65:
 393              		.size	Timer_ISR_Handler, .-Timer_ISR_Handler
 394              		.section	.text.writeRegister16,"ax",%progbits
 395              		.align	2
 396              		.global	writeRegister16
 397              		.thumb
 398              		.thumb_func
ARM GAS  C:\Users\ALEXAN~1\AppData\Local\Temp\cc64y7cK.s 			page 11


 399              		.type	writeRegister16, %function
 400              	writeRegister16:
 401              	.LFB66:
 170:main.c        **** void writeRegister16(uint8_t reg, uint16_t value) {
 402              		.loc 1 170 0
 403              		.cfi_startproc
 404              		@ args = 0, pretend = 0, frame = 0
 405              		@ frame_needed = 0, uses_anonymous_args = 0
 406              	.LVL51:
 407 0000 70B5     		push	{r4, r5, r6, lr}
 408              		.cfi_def_cfa_offset 16
 409              		.cfi_offset 4, -16
 410              		.cfi_offset 5, -12
 411              		.cfi_offset 6, -8
 412              		.cfi_offset 14, -4
 413 0002 0646     		mov	r6, r0
 171:main.c        ****     uint8_t data[3];
 172:main.c        ****     data[0] = reg;
 173:main.c        ****     data[1] = (uint8_t)(value >> 8); // MSB
 414              		.loc 1 173 0
 415 0004 0D0A     		lsrs	r5, r1, #8
 174:main.c        ****     data[2] = (uint8_t)(value & 0xFF); // LSB
 416              		.loc 1 174 0
 417 0006 CCB2     		uxtb	r4, r1
 175:main.c        ****     
 176:main.c        ****     // Iniciar transmisión I2C
 177:main.c        ****     I2C_MasterSendStart(AS5600_ADDR, I2C_WRITE_XFER_MODE);
 418              		.loc 1 177 0
 419 0008 0021     		movs	r1, #0
 420              	.LVL52:
 421 000a 3620     		movs	r0, #54
 422              	.LVL53:
 423 000c FFF7FEFF 		bl	I2C_MasterSendStart
 424              	.LVL54:
 178:main.c        ****     I2C_MasterWriteByte(data[0]);
 425              		.loc 1 178 0
 426 0010 3046     		mov	r0, r6
 427 0012 FFF7FEFF 		bl	I2C_MasterWriteByte
 428              	.LVL55:
 179:main.c        ****     I2C_MasterWriteByte(data[1]);
 429              		.loc 1 179 0
 430 0016 2846     		mov	r0, r5
 431 0018 FFF7FEFF 		bl	I2C_MasterWriteByte
 432              	.LVL56:
 180:main.c        ****     I2C_MasterWriteByte(data[2]);
 433              		.loc 1 180 0
 434 001c 2046     		mov	r0, r4
 435 001e FFF7FEFF 		bl	I2C_MasterWriteByte
 436              	.LVL57:
 181:main.c        ****     I2C_MasterSendStop();
 437              		.loc 1 181 0
 438 0022 FFF7FEFF 		bl	I2C_MasterSendStop
 439              	.LVL58:
 440 0026 70BD     		pop	{r4, r5, r6, pc}
 441              		.cfi_endproc
 442              	.LFE66:
 443              		.size	writeRegister16, .-writeRegister16
ARM GAS  C:\Users\ALEXAN~1\AppData\Local\Temp\cc64y7cK.s 			page 12


 444              		.section	.text.main,"ax",%progbits
 445              		.align	2
 446              		.global	main
 447              		.thumb
 448              		.thumb_func
 449              		.type	main, %function
 450              	main:
 451              	.LFB67:
 182:main.c        **** }
 183:main.c        **** 
 184:main.c        **** int main(void)
 185:main.c        **** {
 452              		.loc 1 185 0
 453              		.cfi_startproc
 454              		@ args = 0, pretend = 0, frame = 0
 455              		@ frame_needed = 0, uses_anonymous_args = 0
 456 0000 10B5     		push	{r4, lr}
 457              		.cfi_def_cfa_offset 8
 458              		.cfi_offset 4, -8
 459              		.cfi_offset 14, -4
 186:main.c        ****     
 187:main.c        ****     /// valores para timer
 188:main.c        ****     CyGlobalIntEnable; /* Habilita las interrupciones globales. */
 460              		.loc 1 188 0
 461              		.syntax unified
 462              	@ 188 "main.c" 1
 463 0002 62B6     		CPSIE   i
 464              	@ 0 "" 2
 189:main.c        ****     // Iniciar la comunicación serial
 190:main.c        ****     UART_Start();
 465              		.loc 1 190 0
 466              		.thumb
 467              		.syntax unified
 468 0004 FFF7FEFF 		bl	UART_Start
 469              	.LVL59:
 191:main.c        ****     // Iniciar los PWM
 192:main.c        ****     RPWM_Start();
 470              		.loc 1 192 0
 471 0008 FFF7FEFF 		bl	RPWM_Start
 472              	.LVL60:
 193:main.c        ****     LPWM_Start();
 473              		.loc 1 193 0
 474 000c FFF7FEFF 		bl	LPWM_Start
 475              	.LVL61:
 194:main.c        ****     //
 195:main.c        ****     Clock_1_Start();
 476              		.loc 1 195 0
 477 0010 FFF7FEFF 		bl	Clock_1_Start
 478              	.LVL62:
 196:main.c        ****  
 197:main.c        ****     // Inicializar el puerto I2C y Oled
 198:main.c        ****     I2C_Start();
 479              		.loc 1 198 0
 480 0014 FFF7FEFF 		bl	I2C_Start
 481              	.LVL63:
 199:main.c        ****     display_init(DISPLAY_ADDRESS);
 482              		.loc 1 199 0
ARM GAS  C:\Users\ALEXAN~1\AppData\Local\Temp\cc64y7cK.s 			page 13


 483 0018 3C20     		movs	r0, #60
 484 001a FFF7FEFF 		bl	display_init
 485              	.LVL64:
 200:main.c        ****     // Configuración para alta frecuencia de actualización
 201:main.c        ****   uint16_t configValue = 0;
 202:main.c        ****   configValue |= (0b00 << 12); // PM: Nominal (para la mayor tasa de actualización)
 203:main.c        ****   configValue |= (0b00 << 10); // Hysteresis: OFF
 204:main.c        ****   configValue |= (0b00 << 8);  // Output stage: Analog (opcional, cambiar si se usa salida PWM)
 205:main.c        ****   configValue |= (0b00 << 6);  // PWM Frequency: 115 Hz (opcional si se usa salida PWM)
 206:main.c        ****   configValue |= (0b00 << 4);  // Slow filter: 16x (mínimo filtro)
 207:main.c        ****   configValue |= 0b0000;       // Fast filter threshold: No fast filter
 208:main.c        **** 
 209:main.c        ****   writeRegister16(AS5600_CONF_MSB, configValue);
 486              		.loc 1 209 0
 487 001e 0021     		movs	r1, #0
 488 0020 0720     		movs	r0, #7
 489 0022 FFF7FEFF 		bl	writeRegister16
 490              	.LVL65:
 210:main.c        ****   UART_PutString("Configuration written for high frequency update!");
 491              		.loc 1 210 0
 492 0026 2448     		ldr	r0, .L29
 493 0028 FFF7FEFF 		bl	UART_PutString
 494              	.LVL66:
 211:main.c        **** 
 212:main.c        ****     RPWM_WriteCompare(0);
 495              		.loc 1 212 0
 496 002c 0020     		movs	r0, #0
 497 002e FFF7FEFF 		bl	RPWM_WriteCompare
 498              	.LVL67:
 213:main.c        ****     LPWM_WriteCompare(0);
 499              		.loc 1 213 0
 500 0032 0020     		movs	r0, #0
 501 0034 FFF7FEFF 		bl	LPWM_WriteCompare
 502              	.LVL68:
 214:main.c        ****     // clearing display
 215:main.c        ****     display_clear();    
 503              		.loc 1 215 0
 504 0038 FFF7FEFF 		bl	display_clear
 505              	.LVL69:
 216:main.c        ****     display_update();
 506              		.loc 1 216 0
 507 003c FFF7FEFF 		bl	display_update
 508              	.LVL70:
 217:main.c        ****     gfx_setTextSize(2);
 509              		.loc 1 217 0
 510 0040 0220     		movs	r0, #2
 511 0042 FFF7FEFF 		bl	gfx_setTextSize
 512              	.LVL71:
 218:main.c        ****     gfx_setTextColor(WHITE);
 513              		.loc 1 218 0
 514 0046 0120     		movs	r0, #1
 515 0048 FFF7FEFF 		bl	gfx_setTextColor
 516              	.LVL72:
 219:main.c        ****     gfx_setCursor(35,22);
 517              		.loc 1 219 0
 518 004c 1621     		movs	r1, #22
 519 004e 2320     		movs	r0, #35
ARM GAS  C:\Users\ALEXAN~1\AppData\Local\Temp\cc64y7cK.s 			page 14


 520 0050 FFF7FEFF 		bl	gfx_setCursor
 521              	.LVL73:
 220:main.c        ****     gfx_println("READ");
 522              		.loc 1 220 0
 523 0054 1948     		ldr	r0, .L29+4
 524 0056 FFF7FEFF 		bl	gfx_println
 525              	.LVL74:
 221:main.c        ****     display_update();    
 526              		.loc 1 221 0
 527 005a FFF7FEFF 		bl	display_update
 528              	.LVL75:
 222:main.c        ****     CyDelay(10000);
 529              		.loc 1 222 0
 530 005e 42F21070 		movw	r0, #10000
 531 0062 FFF7FEFF 		bl	CyDelay
 532              	.LVL76:
 223:main.c        ****     // Escribir encabezado solo una vez
 224:main.c        ****     UART_PutString("\r\nPWM, , Crudo, , Grados,  delta, deltaAngle\r\n");
 533              		.loc 1 224 0
 534 0066 1648     		ldr	r0, .L29+8
 535 0068 FFF7FEFF 		bl	UART_PutString
 536              	.LVL77:
 225:main.c        ****     display_clear();    
 537              		.loc 1 225 0
 538 006c FFF7FEFF 		bl	display_clear
 539              	.LVL78:
 226:main.c        ****     gfx_setCursor(40, 0);
 540              		.loc 1 226 0
 541 0070 0021     		movs	r1, #0
 542 0072 2820     		movs	r0, #40
 543 0074 FFF7FEFF 		bl	gfx_setCursor
 544              	.LVL79:
 227:main.c        ****     gfx_setTextSize(1);
 545              		.loc 1 227 0
 546 0078 0120     		movs	r0, #1
 547 007a FFF7FEFF 		bl	gfx_setTextSize
 548              	.LVL80:
 228:main.c        ****     gfx_print("READING");
 549              		.loc 1 228 0
 550 007e 1148     		ldr	r0, .L29+12
 551 0080 FFF7FEFF 		bl	gfx_print
 552              	.LVL81:
 229:main.c        ****     gfx_setCursor(0,20);
 553              		.loc 1 229 0
 554 0084 1421     		movs	r1, #20
 555 0086 0020     		movs	r0, #0
 556 0088 FFF7FEFF 		bl	gfx_setCursor
 557              	.LVL82:
 230:main.c        ****     gfx_print("pwm:   ");
 558              		.loc 1 230 0
 559 008c 0E48     		ldr	r0, .L29+16
 560 008e FFF7FEFF 		bl	gfx_print
 561              	.LVL83:
 231:main.c        ****     sprintf(buffer, "%d",pwm);
 562              		.loc 1 231 0
 563 0092 0E4C     		ldr	r4, .L29+20
 564 0094 0E4B     		ldr	r3, .L29+24
ARM GAS  C:\Users\ALEXAN~1\AppData\Local\Temp\cc64y7cK.s 			page 15


 565 0096 1A88     		ldrh	r2, [r3]
 566 0098 0E49     		ldr	r1, .L29+28
 567 009a 2046     		mov	r0, r4
 568 009c FFF7FEFF 		bl	sprintf
 569              	.LVL84:
 232:main.c        ****     gfx_print(buffer);
 570              		.loc 1 232 0
 571 00a0 2046     		mov	r0, r4
 572 00a2 FFF7FEFF 		bl	gfx_print
 573              	.LVL85:
 233:main.c        ****     display_update();
 574              		.loc 1 233 0
 575 00a6 FFF7FEFF 		bl	display_update
 576              	.LVL86:
 234:main.c        ****        // Configurar el temporizador
 235:main.c        ****     Timer1_Start();
 577              		.loc 1 235 0
 578 00aa FFF7FEFF 		bl	Timer1_Start
 579              	.LVL87:
 236:main.c        ****     isr_StartEx(Timer_ISR_Handler); // Configurar ISR para el temporizador
 580              		.loc 1 236 0
 581 00ae 0A48     		ldr	r0, .L29+32
 582 00b0 FFF7FEFF 		bl	isr_StartEx
 583              	.LVL88:
 584              	.L27:
 585 00b4 FEE7     		b	.L27
 586              	.L30:
 587 00b6 00BF     		.align	2
 588              	.L29:
 589 00b8 84000000 		.word	.LC1
 590 00bc B8000000 		.word	.LC2
 591 00c0 C0000000 		.word	.LC3
 592 00c4 F0000000 		.word	.LC4
 593 00c8 F8000000 		.word	.LC5
 594 00cc 00000000 		.word	buffer
 595 00d0 00000000 		.word	.LANCHOR1
 596 00d4 00010000 		.word	.LC6
 597 00d8 00000000 		.word	Timer_ISR_Handler
 598              		.cfi_endproc
 599              	.LFE67:
 600              		.size	main, .-main
 601              		.comm	buffer,500,4
 602              		.global	elapsedMillis
 603              		.global	deltaAngle
 604              		.global	angAnterior
 605              		.comm	anguloGrados,4,4
 606              		.global	pwmup
 607              		.global	rpm
 608              		.global	pwm
 609              		.global	dutyCycle
 610              		.comm	rawAngle,2,2
 611              		.global	milliseconds
 612              		.comm	prevTime,8,8
 613              		.global	interval
 614              		.global	previousMillis
 615              		.comm	deltaAngleIndex,4,4
 616              		.comm	deltaAngleHistory,20,4
ARM GAS  C:\Users\ALEXAN~1\AppData\Local\Temp\cc64y7cK.s 			page 16


 617              		.comm	delta_tiempo,4,4
 618              		.global	currentTime
 619              		.section	.rodata
 620              		.align	2
 621              		.type	interval, %object
 622              		.size	interval, 4
 623              	interval:
 624 0000 58020000 		.word	600
 625              		.data
 626              		.align	2
 627              		.set	.LANCHOR1,. + 0
 628              		.type	pwm, %object
 629              		.size	pwm, 2
 630              	pwm:
 631 0000 F401     		.short	500
 632 0002 0000     		.space	2
 633              		.type	pwmup, %object
 634              		.size	pwmup, 4
 635              	pwmup:
 636 0004 00007A43 		.word	1132068864
 637              		.section	.rodata.str1.4,"aMS",%progbits,1
 638              		.align	2
 639              	.LC0:
 640 0000 50574D2C 		.ascii	"PWM, %d ,    Time, %.2Lf  ,     Crudo, %u   ,   Gra"
 640      20256420 
 640      2C202020 
 640      2054696D 
 640      652C2025 
 641 0033 646F732C 		.ascii	"dos,   %.5f  , deltaAngle,  %.3f    ,  deltaTime,  "
 641      20202025 
 641      2E356620 
 641      202C2064 
 641      656C7461 
 642 0066 20252E32 		.ascii	" %.2f   ,   RPM  ,  %.6f,\012\000"
 642      66202020 
 642      2C202020 
 642      52504D20 
 642      202C2020 
 643 0081 000000   		.space	3
 644              	.LC1:
 645 0084 436F6E66 		.ascii	"Configuration written for high frequency update!\000"
 645      69677572 
 645      6174696F 
 645      6E207772 
 645      69747465 
 646 00b5 000000   		.space	3
 647              	.LC2:
 648 00b8 52454144 		.ascii	"READ\000"
 648      00
 649 00bd 000000   		.space	3
 650              	.LC3:
 651 00c0 0D0A5057 		.ascii	"\015\012PWM, , Crudo, , Grados,  delta, deltaAngle\015"
 651      4D2C202C 
 651      20437275 
 651      646F2C20 
 651      2C204772 
 652 00ed 0A00     		.ascii	"\012\000"
ARM GAS  C:\Users\ALEXAN~1\AppData\Local\Temp\cc64y7cK.s 			page 17


 653 00ef 00       		.space	1
 654              	.LC4:
 655 00f0 52454144 		.ascii	"READING\000"
 655      494E4700 
 656              	.LC5:
 657 00f8 70776D3A 		.ascii	"pwm:   \000"
 657      20202000 
 658              	.LC6:
 659 0100 256400   		.ascii	"%d\000"
 660              		.bss
 661              		.align	3
 662              		.set	.LANCHOR0,. + 0
 663              		.type	currentTime, %object
 664              		.size	currentTime, 8
 665              	currentTime:
 666 0000 00000000 		.space	8
 666      00000000 
 667              		.type	angAnterior, %object
 668              		.size	angAnterior, 4
 669              	angAnterior:
 670 0008 00000000 		.space	4
 671              		.type	deltaAngle, %object
 672              		.size	deltaAngle, 4
 673              	deltaAngle:
 674 000c 00000000 		.space	4
 675              		.type	rpm, %object
 676              		.size	rpm, 4
 677              	rpm:
 678 0010 00000000 		.space	4
 679 0014 00000000 		.space	4
 680              		.type	milliseconds, %object
 681              		.size	milliseconds, 8
 682              	milliseconds:
 683 0018 00000000 		.space	8
 683      00000000 
 684              		.type	dutyCycle, %object
 685              		.size	dutyCycle, 2
 686              	dutyCycle:
 687 0020 0000     		.space	2
 688 0022 0000     		.space	2
 689              		.type	elapsedMillis, %object
 690              		.size	elapsedMillis, 4
 691              	elapsedMillis:
 692 0024 00000000 		.space	4
 693              		.type	previousMillis, %object
 694              		.size	previousMillis, 8
 695              	previousMillis:
 696 0028 00000000 		.space	8
 696      00000000 
 697              		.text
 698              	.Letext0:
 699              		.file 2 "c:\\program files (x86)\\cypress\\psoc creator\\4.4\\psoc creator\\import\\gnu\\arm\\5.4.
 700              		.file 3 "c:\\program files (x86)\\cypress\\psoc creator\\4.4\\psoc creator\\import\\gnu\\arm\\5.4.
 701              		.file 4 "Generated_Source\\PSoC5/core_cm3.h"
 702              		.file 5 "Generated_Source\\PSoC5/I2C.h"
 703              		.file 6 "./ssd1306.h"
 704              		.file 7 "c:\\program files (x86)\\cypress\\psoc creator\\4.4\\psoc creator\\import\\gnu\\arm\\5.4.
ARM GAS  C:\Users\ALEXAN~1\AppData\Local\Temp\cc64y7cK.s 			page 18


 705              		.file 8 "Generated_Source\\PSoC5/UART.h"
 706              		.file 9 "Generated_Source\\PSoC5/LPWM.h"
 707              		.file 10 "Generated_Source\\PSoC5/RPWM.h"
 708              		.file 11 "Generated_Source\\PSoC5/Clock_1.h"
 709              		.file 12 "Generated_Source\\PSoC5/CyLib.h"
 710              		.file 13 "Generated_Source\\PSoC5/Timer1.h"
 711              		.file 14 "Generated_Source\\PSoC5/isr.h"